; ModuleID = 'source-C-CXX/16/777.cpp'
source_filename = "source-C-CXX/16/777.cpp"
target datalayout = "e-m:e-p270:32:32-p271:32:32-p272:64:64-i64:64-f80:128-n8:16:32:64-S128"
target triple = "x86_64-pc-linux-gnu"

%"class.std::ios_base::Init" = type { i8 }
%"class.std::basic_ostream" = type { i32 (...)**, %"class.std::basic_ios" }
%"class.std::basic_ios" = type { %"class.std::ios_base", %"class.std::basic_ostream"*, i8, i8, %"class.std::basic_streambuf"*, %"class.std::ctype"*, %"class.std::num_put"*, %"class.std::num_get"* }
%"class.std::ios_base" = type { i32 (...)**, i64, i64, i32, i32, i32, %"struct.std::ios_base::_Callback_list"*, %"struct.std::ios_base::_Words", [8 x %"struct.std::ios_base::_Words"], i32, %"struct.std::ios_base::_Words"*, %"class.std::locale" }
%"struct.std::ios_base::_Callback_list" = type { %"struct.std::ios_base::_Callback_list"*, void (i32, %"class.std::ios_base"*, i32)*, i32, i32 }
%"struct.std::ios_base::_Words" = type { i8*, i64 }
%"class.std::locale" = type { %"class.std::locale::_Impl"* }
%"class.std::locale::_Impl" = type { i32, %"class.std::locale::facet"**, i64, %"class.std::locale::facet"**, i8** }
%"class.std::locale::facet" = type <{ i32 (...)**, i32, [4 x i8] }>
%"class.std::basic_streambuf" = type { i32 (...)**, i8*, i8*, i8*, i8*, i8*, i8*, %"class.std::locale" }
%"class.std::ctype" = type <{ %"class.std::locale::facet.base", [4 x i8], %struct.__locale_struct*, i8, [7 x i8], i32*, i32*, i16*, i8, [256 x i8], [256 x i8], i8, [6 x i8] }>
%"class.std::locale::facet.base" = type <{ i32 (...)**, i32 }>
%struct.__locale_struct = type { [13 x %struct.__locale_data*], i16*, i32*, i32*, [13 x i8*] }
%struct.__locale_data = type opaque
%"class.std::num_put" = type { %"class.std::locale::facet.base", [4 x i8] }
%"class.std::num_get" = type { %"class.std::locale::facet.base", [4 x i8] }

@_ZStL8__ioinit = internal global %"class.std::ios_base::Init" zeroinitializer, align 1
@__dso_handle = external hidden global i8
@s = dso_local global [101 x i8] zeroinitializer, align 16
@l = dso_local local_unnamed_addr global i32 0, align 4
@_ZSt4cout = external global %"class.std::basic_ostream", align 8
@.str = private unnamed_addr constant [3 x i8] c"%s\00", align 1
@llvm.global_ctors = appending global [1 x { i32, void ()*, i8* }] [{ i32, void ()*, i8* } { i32 65535, void ()* @_GLOBAL__sub_I_777.cpp, i8* null }]

declare void @_ZNSt8ios_base4InitC1Ev(%"class.std::ios_base::Init"* nonnull align 1 dereferenceable(1)) unnamed_addr #0

; Function Attrs: nounwind
declare void @_ZNSt8ios_base4InitD1Ev(%"class.std::ios_base::Init"* nonnull align 1 dereferenceable(1)) unnamed_addr #1

; Function Attrs: nofree nounwind
declare i32 @__cxa_atexit(void (i8*)*, i8*, i8*) local_unnamed_addr #2

; Function Attrs: mustprogress sspstrong uwtable
define dso_local i32 @_Z1fi(i32 %0) local_unnamed_addr #3 {
  %2 = alloca i8, align 1
  %3 = alloca i8, align 1
  %4 = alloca i8, align 1
  %5 = load i32, i32* @l, align 4
  %6 = icmp sgt i32 %0, -1
  br i1 %6, label %7, label %13

7:                                                ; preds = %1
  %8 = sext i32 %5 to i64
  br label %9

9:                                                ; preds = %7, %29
  %10 = phi i32 [ %31, %29 ], [ %0, %7 ]
  %11 = zext i32 %10 to i64
  %12 = zext i32 %10 to i64
  br label %15

13:                                               ; preds = %29, %35, %1
  %14 = icmp sgt i32 %5, 0
  br i1 %14, label %40, label %55

15:                                               ; preds = %9, %35
  %16 = phi i64 [ %12, %9 ], [ %39, %35 ]
  %17 = phi i64 [ %11, %9 ], [ %38, %35 ]
  %18 = getelementptr inbounds [101 x i8], [101 x i8]* @s, i64 0, i64 %16
  %19 = load i8, i8* %18, align 1, !tbaa !5
  %20 = icmp eq i8 %19, 40
  br i1 %20, label %21, label %35

21:                                               ; preds = %15, %25
  %22 = phi i64 [ %23, %25 ], [ %17, %15 ]
  %23 = add nsw i64 %22, 1
  %24 = icmp slt i64 %23, %8
  br i1 %24, label %25, label %35

25:                                               ; preds = %21
  %26 = getelementptr inbounds [101 x i8], [101 x i8]* @s, i64 0, i64 %23
  %27 = load i8, i8* %26, align 1, !tbaa !5
  %28 = icmp eq i8 %27, 41
  br i1 %28, label %29, label %21, !llvm.loop !8

29:                                               ; preds = %25
  %30 = getelementptr inbounds [101 x i8], [101 x i8]* @s, i64 0, i64 %23
  %31 = trunc i64 %16 to i32
  %32 = and i64 %16, 4294967295
  %33 = getelementptr inbounds [101 x i8], [101 x i8]* @s, i64 0, i64 %32
  store i8 97, i8* %33, align 1, !tbaa !5
  store i8 97, i8* %30, align 1, !tbaa !5
  %34 = icmp sgt i32 %31, -1
  br i1 %34, label %9, label %13

35:                                               ; preds = %21, %15
  %36 = trunc i64 %16 to i32
  %37 = icmp sgt i32 %36, 0
  %38 = add nsw i64 %17, -1
  %39 = add nsw i64 %16, -1
  br i1 %37, label %15, label %13, !llvm.loop !10

40:                                               ; preds = %13, %50
  %41 = phi i64 [ %51, %50 ], [ 0, %13 ]
  %42 = getelementptr inbounds [101 x i8], [101 x i8]* @s, i64 0, i64 %41
  %43 = load i8, i8* %42, align 1, !tbaa !5
  switch i8 %43, label %48 [
    i8 40, label %44
    i8 41, label %46
  ]

44:                                               ; preds = %40
  call void @llvm.lifetime.start.p0i8(i64 1, i8* nonnull %4)
  store i8 36, i8* %4, align 1, !tbaa !5
  %45 = call nonnull align 8 dereferenceable(8) %"class.std::basic_ostream"* @_ZSt16__ostream_insertIcSt11char_traitsIcEERSt13basic_ostreamIT_T0_ES6_PKS3_l(%"class.std::basic_ostream"* nonnull align 8 dereferenceable(8) @_ZSt4cout, i8* nonnull %4, i64 1)
  call void @llvm.lifetime.end.p0i8(i64 1, i8* nonnull %4)
  br label %50

46:                                               ; preds = %40
  call void @llvm.lifetime.start.p0i8(i64 1, i8* nonnull %3)
  store i8 63, i8* %3, align 1, !tbaa !5
  %47 = call nonnull align 8 dereferenceable(8) %"class.std::basic_ostream"* @_ZSt16__ostream_insertIcSt11char_traitsIcEERSt13basic_ostreamIT_T0_ES6_PKS3_l(%"class.std::basic_ostream"* nonnull align 8 dereferenceable(8) @_ZSt4cout, i8* nonnull %3, i64 1)
  call void @llvm.lifetime.end.p0i8(i64 1, i8* nonnull %3)
  br label %50

48:                                               ; preds = %40
  call void @llvm.lifetime.start.p0i8(i64 1, i8* nonnull %2)
  store i8 32, i8* %2, align 1, !tbaa !5
  %49 = call nonnull align 8 dereferenceable(8) %"class.std::basic_ostream"* @_ZSt16__ostream_insertIcSt11char_traitsIcEERSt13basic_ostreamIT_T0_ES6_PKS3_l(%"class.std::basic_ostream"* nonnull align 8 dereferenceable(8) @_ZSt4cout, i8* nonnull %2, i64 1)
  call void @llvm.lifetime.end.p0i8(i64 1, i8* nonnull %2)
  br label %50

50:                                               ; preds = %44, %48, %46
  %51 = add nuw nsw i64 %41, 1
  %52 = load i32, i32* @l, align 4, !tbaa !11
  %53 = sext i32 %52 to i64
  %54 = icmp slt i64 %51, %53
  br i1 %54, label %40, label %55, !llvm.loop !13

55:                                               ; preds = %50, %13
  %56 = load i8*, i8** bitcast (%"class.std::basic_ostream"* @_ZSt4cout to i8**), align 8, !tbaa !14
  %57 = getelementptr i8, i8* %56, i64 -24
  %58 = bitcast i8* %57 to i64*
  %59 = load i64, i64* %58, align 8
  %60 = add nsw i64 %59, 240
  %61 = getelementptr inbounds i8, i8* bitcast (%"class.std::basic_ostream"* @_ZSt4cout to i8*), i64 %60
  %62 = bitcast i8* %61 to %"class.std::ctype"**
  %63 = load %"class.std::ctype"*, %"class.std::ctype"** %62, align 8, !tbaa !16
  %64 = icmp eq %"class.std::ctype"* %63, null
  br i1 %64, label %65, label %66

65:                                               ; preds = %55
  call void @_ZSt16__throw_bad_castv() #10
  unreachable

66:                                               ; preds = %55
  %67 = getelementptr inbounds %"class.std::ctype", %"class.std::ctype"* %63, i64 0, i32 8
  %68 = load i8, i8* %67, align 8, !tbaa !20
  %69 = icmp eq i8 %68, 0
  br i1 %69, label %73, label %70

70:                                               ; preds = %66
  %71 = getelementptr inbounds %"class.std::ctype", %"class.std::ctype"* %63, i64 0, i32 9, i64 10
  %72 = load i8, i8* %71, align 1, !tbaa !5
  br label %79

73:                                               ; preds = %66
  call void @_ZNKSt5ctypeIcE13_M_widen_initEv(%"class.std::ctype"* nonnull align 8 dereferenceable(570) %63)
  %74 = bitcast %"class.std::ctype"* %63 to i8 (%"class.std::ctype"*, i8)***
  %75 = load i8 (%"class.std::ctype"*, i8)**, i8 (%"class.std::ctype"*, i8)*** %74, align 8, !tbaa !14
  %76 = getelementptr inbounds i8 (%"class.std::ctype"*, i8)*, i8 (%"class.std::ctype"*, i8)** %75, i64 6
  %77 = load i8 (%"class.std::ctype"*, i8)*, i8 (%"class.std::ctype"*, i8)** %76, align 8
  %78 = call signext i8 %77(%"class.std::ctype"* nonnull align 8 dereferenceable(570) %63, i8 signext 10)
  br label %79

79:                                               ; preds = %70, %73
  %80 = phi i8 [ %72, %70 ], [ %78, %73 ]
  %81 = call nonnull align 8 dereferenceable(8) %"class.std::basic_ostream"* @_ZNSo3putEc(%"class.std::basic_ostream"* nonnull align 8 dereferenceable(8) @_ZSt4cout, i8 signext %80)
  %82 = call nonnull align 8 dereferenceable(8) %"class.std::basic_ostream"* @_ZNSo5flushEv(%"class.std::basic_ostream"* nonnull align 8 dereferenceable(8) %81)
  ret i32 0
}

; Function Attrs: mustprogress norecurse sspstrong uwtable
define dso_local i32 @main() local_unnamed_addr #4 {
  %1 = tail call i32 (i8*, ...) @__isoc99_scanf(i8* getelementptr inbounds ([3 x i8], [3 x i8]* @.str, i64 0, i64 0), i8* getelementptr inbounds ([101 x i8], [101 x i8]* @s, i64 0, i64 0))
  %2 = icmp eq i32 %1, -1
  br i1 %2, label %40, label %3

3:                                                ; preds = %0, %31
  %4 = tail call i64 @strlen(i8* noundef nonnull dereferenceable(1) getelementptr inbounds ([101 x i8], [101 x i8]* @s, i64 0, i64 0)) #11
  %5 = trunc i64 %4 to i32
  store i32 %5, i32* @l, align 4, !tbaa !11
  %6 = tail call i64 @strlen(i8* noundef nonnull dereferenceable(1) getelementptr inbounds ([101 x i8], [101 x i8]* @s, i64 0, i64 0)) #12
  %7 = tail call nonnull align 8 dereferenceable(8) %"class.std::basic_ostream"* @_ZSt16__ostream_insertIcSt11char_traitsIcEERSt13basic_ostreamIT_T0_ES6_PKS3_l(%"class.std::basic_ostream"* nonnull align 8 dereferenceable(8) @_ZSt4cout, i8* nonnull getelementptr inbounds ([101 x i8], [101 x i8]* @s, i64 0, i64 0), i64 %6)
  %8 = load i8*, i8** bitcast (%"class.std::basic_ostream"* @_ZSt4cout to i8**), align 8, !tbaa !14
  %9 = getelementptr i8, i8* %8, i64 -24
  %10 = bitcast i8* %9 to i64*
  %11 = load i64, i64* %10, align 8
  %12 = add nsw i64 %11, 240
  %13 = getelementptr inbounds i8, i8* bitcast (%"class.std::basic_ostream"* @_ZSt4cout to i8*), i64 %12
  %14 = bitcast i8* %13 to %"class.std::ctype"**
  %15 = load %"class.std::ctype"*, %"class.std::ctype"** %14, align 8, !tbaa !16
  %16 = icmp eq %"class.std::ctype"* %15, null
  br i1 %16, label %17, label %18

17:                                               ; preds = %3
  tail call void @_ZSt16__throw_bad_castv() #10
  unreachable

18:                                               ; preds = %3
  %19 = getelementptr inbounds %"class.std::ctype", %"class.std::ctype"* %15, i64 0, i32 8
  %20 = load i8, i8* %19, align 8, !tbaa !20
  %21 = icmp eq i8 %20, 0
  br i1 %21, label %25, label %22

22:                                               ; preds = %18
  %23 = getelementptr inbounds %"class.std::ctype", %"class.std::ctype"* %15, i64 0, i32 9, i64 10
  %24 = load i8, i8* %23, align 1, !tbaa !5
  br label %31

25:                                               ; preds = %18
  tail call void @_ZNKSt5ctypeIcE13_M_widen_initEv(%"class.std::ctype"* nonnull align 8 dereferenceable(570) %15)
  %26 = bitcast %"class.std::ctype"* %15 to i8 (%"class.std::ctype"*, i8)***
  %27 = load i8 (%"class.std::ctype"*, i8)**, i8 (%"class.std::ctype"*, i8)*** %26, align 8, !tbaa !14
  %28 = getelementptr inbounds i8 (%"class.std::ctype"*, i8)*, i8 (%"class.std::ctype"*, i8)** %27, i64 6
  %29 = load i8 (%"class.std::ctype"*, i8)*, i8 (%"class.std::ctype"*, i8)** %28, align 8
  %30 = tail call signext i8 %29(%"class.std::ctype"* nonnull align 8 dereferenceable(570) %15, i8 signext 10)
  br label %31

31:                                               ; preds = %22, %25
  %32 = phi i8 [ %24, %22 ], [ %30, %25 ]
  %33 = tail call nonnull align 8 dereferenceable(8) %"class.std::basic_ostream"* @_ZNSo3putEc(%"class.std::basic_ostream"* nonnull align 8 dereferenceable(8) @_ZSt4cout, i8 signext %32)
  %34 = tail call nonnull align 8 dereferenceable(8) %"class.std::basic_ostream"* @_ZNSo5flushEv(%"class.std::basic_ostream"* nonnull align 8 dereferenceable(8) %33)
  %35 = load i32, i32* @l, align 4, !tbaa !11
  %36 = add nsw i32 %35, -1
  %37 = tail call i32 @_Z1fi(i32 %36)
  %38 = tail call i32 (i8*, ...) @__isoc99_scanf(i8* getelementptr inbounds ([3 x i8], [3 x i8]* @.str, i64 0, i64 0), i8* getelementptr inbounds ([101 x i8], [101 x i8]* @s, i64 0, i64 0))
  %39 = icmp eq i32 %38, -1
  br i1 %39, label %40, label %3, !llvm.loop !22

40:                                               ; preds = %31, %0
  ret i32 0
}

; Function Attrs: nofree nounwind
declare noundef i32 @__isoc99_scanf(i8* nocapture noundef readonly, ...) local_unnamed_addr #5

; Function Attrs: argmemonly mustprogress nofree nounwind readonly willreturn
declare i64 @strlen(i8* nocapture) local_unnamed_addr #6

declare nonnull align 8 dereferenceable(8) %"class.std::basic_ostream"* @_ZSt16__ostream_insertIcSt11char_traitsIcEERSt13basic_ostreamIT_T0_ES6_PKS3_l(%"class.std::basic_ostream"* nonnull align 8 dereferenceable(8), i8*, i64) local_unnamed_addr #0

declare nonnull align 8 dereferenceable(8) %"class.std::basic_ostream"* @_ZNSo3putEc(%"class.std::basic_ostream"* nonnull align 8 dereferenceable(8), i8 signext) local_unnamed_addr #0

declare nonnull align 8 dereferenceable(8) %"class.std::basic_ostream"* @_ZNSo5flushEv(%"class.std::basic_ostream"* nonnull align 8 dereferenceable(8)) local_unnamed_addr #0

; Function Attrs: noreturn
declare void @_ZSt16__throw_bad_castv() local_unnamed_addr #7

declare void @_ZNKSt5ctypeIcE13_M_widen_initEv(%"class.std::ctype"* nonnull align 8 dereferenceable(570)) local_unnamed_addr #0

; Function Attrs: sspstrong uwtable
define internal void @_GLOBAL__sub_I_777.cpp() #8 section ".text.startup" {
  tail call void @_ZNSt8ios_base4InitC1Ev(%"class.std::ios_base::Init"* nonnull align 1 dereferenceable(1) @_ZStL8__ioinit)
  %1 = tail call i32 @__cxa_atexit(void (i8*)* bitcast (void (%"class.std::ios_base::Init"*)* @_ZNSt8ios_base4InitD1Ev to void (i8*)*), i8* getelementptr inbounds (%"class.std::ios_base::Init", %"class.std::ios_base::Init"* @_ZStL8__ioinit, i64 0, i32 0), i8* nonnull @__dso_handle) #12
  ret void
}

; Function Attrs: argmemonly nofree nosync nounwind willreturn
declare void @llvm.lifetime.start.p0i8(i64 immarg, i8* nocapture) #9

; Function Attrs: argmemonly nofree nosync nounwind willreturn
declare void @llvm.lifetime.end.p0i8(i64 immarg, i8* nocapture) #9


!llvm.module.flags = !{!0, !1, !2, !3}
!llvm.ident = !{!4}

!0 = !{i32 1, !"wchar_size", i32 4}
!1 = !{i32 7, !"PIC Level", i32 2}
!2 = !{i32 7, !"PIE Level", i32 2}
!3 = !{i32 7, !"uwtable", i32 1}
!4 = !{!"clang version 13.0.0"}
!5 = !{!6, !6, i64 0}
!6 = !{!"omnipotent char", !7, i64 0}
!7 = !{!"Simple C++ TBAA"}
!8 = distinct !{!8, !9}
!9 = !{!"llvm.loop.mustprogress"}
!10 = distinct !{!10, !9}
!11 = !{!12, !12, i64 0}
!12 = !{!"int", !6, i64 0}
!13 = distinct !{!13, !9}
!14 = !{!15, !15, i64 0}
!15 = !{!"vtable pointer", !7, i64 0}
!16 = !{!17, !18, i64 240}
!17 = !{!"_ZTSSt9basic_iosIcSt11char_traitsIcEE", !18, i64 216, !6, i64 224, !19, i64 225, !18, i64 232, !18, i64 240, !18, i64 248, !18, i64 256}
!18 = !{!"any pointer", !6, i64 0}
!19 = !{!"bool", !6, i64 0}
!20 = !{!21, !6, i64 56}
!21 = !{!"_ZTSSt5ctypeIcE", !18, i64 16, !19, i64 24, !18, i64 32, !18, i64 40, !18, i64 48, !6, i64 56, !6, i64 57, !6, i64 313, !6, i64 569}
!22 = distinct !{!22, !9}
